target datalayout = "e-m:e-p270:32:32-p271:32:32-p272:64:64-i64:64-i128:128-f80:128-n8:16:32:64-S128"
target triple = "x86_64-pc-linux-gnu"

%struct.snode = type { i32, i32, ptr, ptr, i16, i16, [2 x ptr], ptr, i32, i8 }

@pq = internal global ptr null, align 8
@PQcnt = internal global i32 0, align 4
@stderr = external global ptr, align 8
@.str.1 = private unnamed_addr constant [4 x i8] c"Q: \00", align 1
@.str.2 = private unnamed_addr constant [11 x i8] c"%d(%d:%d) \00", align 1
@.str.3 = private unnamed_addr constant [2 x i8] c"\0A\00", align 1

; Function Attrs: nounwind uwtable
define void @PQprint() #0 {
  %1 = alloca i32, align 4
  %2 = alloca ptr, align 8
  call void @llvm.lifetime.start.p0(i64 4, ptr %1) #8
  call void @llvm.lifetime.start.p0(i64 8, ptr %2) #8
  %3 = load ptr, ptr @stderr, align 8, !tbaa !14
  %4 = call i32 (ptr, ptr, ...) @fprintf(ptr noundef %3, ptr noundef @.str.1) #8
  store i32 1, ptr %1, align 4, !tbaa !3
  br label %5

5:                                                ; preds = %26, %0
  %6 = load i32, ptr %1, align 4, !tbaa !3
  %7 = load i32, ptr @PQcnt, align 4, !tbaa !3
  %8 = icmp sle i32 %6, %7
  br i1 %8, label %9, label %29

9:                                                ; preds = %5
  %10 = load ptr, ptr @pq, align 8, !tbaa !7
  %11 = load i32, ptr %1, align 4, !tbaa !3
  %12 = sext i32 %11 to i64
  %13 = getelementptr inbounds ptr, ptr %10, i64 %12
  %14 = load ptr, ptr %13, align 8, !tbaa !10
  store ptr %14, ptr %2, align 8, !tbaa !10
  %15 = load ptr, ptr @stderr, align 8, !tbaa !14
  %16 = load ptr, ptr %2, align 8, !tbaa !10
  %17 = getelementptr inbounds nuw %struct.snode, ptr %16, i32 0, i32 8
  %18 = load i32, ptr %17, align 8, !tbaa !28
  %19 = load ptr, ptr %2, align 8, !tbaa !10
  %20 = getelementptr inbounds nuw %struct.snode, ptr %19, i32 0, i32 1
  %21 = load i32, ptr %20, align 4, !tbaa !17
  %22 = load ptr, ptr %2, align 8, !tbaa !10
  %23 = getelementptr inbounds nuw %struct.snode, ptr %22, i32 0, i32 0
  %24 = load i32, ptr %23, align 8, !tbaa !25
  %25 = call i32 (ptr, ptr, ...) @fprintf(ptr noundef %15, ptr noundef @.str.2, i32 noundef %18, i32 noundef %21, i32 noundef %24) #8
  br label %26

26:                                               ; preds = %9
  %27 = load i32, ptr %1, align 4, !tbaa !3
  %28 = add nsw i32 %27, 1
  store i32 %28, ptr %1, align 4, !tbaa !3
  br label %5, !llvm.loop !29

29:                                               ; preds = %5
  %30 = load ptr, ptr @stderr, align 8, !tbaa !14
  %31 = call i32 (ptr, ptr, ...) @fprintf(ptr noundef %30, ptr noundef @.str.3) #8
  call void @llvm.lifetime.end.p0(i64 8, ptr %2) #8
  call void @llvm.lifetime.end.p0(i64 4, ptr %1) #8
  ret void
}