; Function Attrs: cold nofree nounwind uwtable
define void @PQprint() local_unnamed_addr #8 {
  %1 = load ptr, ptr @stderr, align 8, !tbaa !8
  %2 = tail call i64 @fwrite(ptr nonnull @.str.1, i64 3, i64 1, ptr %1) #19
  %3 = load i32, ptr @PQcnt, align 4, !tbaa !12
  %.not5 = icmp slt i32 %3, 1
  br i1 %.not5, label %._crit_edge, label %.lr.ph

.lr.ph:                                           ; preds = %0, %.lr.ph
  %indvars.iv = phi i64 [ %indvars.iv.next, %.lr.ph ], [ 1, %0 ]
  %4 = load ptr, ptr @pq, align 8, !tbaa !3
  %5 = getelementptr inbounds nuw ptr, ptr %4, i64 %indvars.iv
  %6 = load ptr, ptr %5, align 8, !tbaa !10
  %7 = load ptr, ptr @stderr, align 8, !tbaa !8
  %8 = getelementptr inbounds nuw i8, ptr %6, i64 56
  %9 = load i32, ptr %8, align 8, !tbaa !24
  %10 = getelementptr inbounds nuw i8, ptr %6, i64 4
  %11 = load i32, ptr %10, align 4, !tbaa !20
  %12 = load i32, ptr %6, align 8, !tbaa !14
  %13 = tail call i32 (ptr, ptr, ...) @fprintf(ptr noundef %7, ptr noundef nonnull @.str.2, i32 noundef %9, i32 noundef %11, i32 noundef %12) #15
  %indvars.iv.next = add nuw nsw i64 %indvars.iv, 1
  %14 = load i32, ptr @PQcnt, align 4, !tbaa !12
  %15 = sext i32 %14 to i64
  %.not.not = icmp slt i64 %indvars.iv, %15
  br i1 %.not.not, label %.lr.ph, label %._crit_edge, !llvm.loop !25

._crit_edge:                                      ; preds = %.lr.ph, %0
  %16 = load ptr, ptr @stderr, align 8, !tbaa !8
  %fputc = tail call i32 @fputc(i32 10, ptr %16)
  ret void
}